
beq.elf:     file format elf32-littleriscv


Disassembly of section .riscv.attributes:

00000000 <.riscv.attributes>:
   0:	1941                	.insn	2, 0x1941
   2:	0000                	.insn	2, 0x
   4:	7200                	.insn	2, 0x7200
   6:	7369                	.insn	2, 0x7369
   8:	01007663          	bgeu	zero,a6,14 <__start-0x7fffffec>
   c:	0000000f          	fence	unknown,unknown
  10:	7205                	.insn	2, 0x7205
  12:	3376                	.insn	2, 0x3376
  14:	6932                	.insn	2, 0x6932
  16:	7032                	.insn	2, 0x7032
  18:	0031                	.insn	2, 0x0031

Disassembly of section .text:

80000000 <__start>:
80000000:	00100593          	li	a1,1
80000004:	00000093          	li	ra,0
80000008:	00000113          	li	sp,0
8000000c:	00208e63          	beq	ra,sp,80000028 <label2_test01>
80000010:	28b01c63          	bne	zero,a1,800002a8 <fail>
80000014:	00000013          	nop
80000018:	00000013          	nop
8000001c:	00000013          	nop
80000020:	00000013          	nop

80000024 <label1_test01>:
80000024:	00b01663          	bne	zero,a1,80000030 <label3_test01>

80000028 <label2_test01>:
80000028:	fe208ee3          	beq	ra,sp,80000024 <label1_test01>
8000002c:	26b01e63          	bne	zero,a1,800002a8 <fail>

80000030 <label3_test01>:
80000030:	00200593          	li	a1,2
80000034:	00100093          	li	ra,1
80000038:	00100113          	li	sp,1
8000003c:	00208663          	beq	ra,sp,80000048 <label2_test02>
80000040:	26b01463          	bne	zero,a1,800002a8 <fail>

80000044 <label1_test02>:
80000044:	00b01663          	bne	zero,a1,80000050 <label3_test02>

80000048 <label2_test02>:
80000048:	fe208ee3          	beq	ra,sp,80000044 <label1_test02>
8000004c:	24b01e63          	bne	zero,a1,800002a8 <fail>

80000050 <label3_test02>:
80000050:	00300593          	li	a1,3
80000054:	fff00093          	li	ra,-1
80000058:	fff00113          	li	sp,-1
8000005c:	00208663          	beq	ra,sp,80000068 <label2_test03>
80000060:	24b01463          	bne	zero,a1,800002a8 <fail>

80000064 <label1_test03>:
80000064:	00b01663          	bne	zero,a1,80000070 <label3_test03>

80000068 <label2_test03>:
80000068:	fe208ee3          	beq	ra,sp,80000064 <label1_test03>
8000006c:	22b01e63          	bne	zero,a1,800002a8 <fail>

80000070 <label3_test03>:
80000070:	00400593          	li	a1,4
80000074:	00000093          	li	ra,0
80000078:	00100113          	li	sp,1
8000007c:	00208463          	beq	ra,sp,80000084 <label1_test04>
80000080:	00b01463          	bne	zero,a1,80000088 <label2_test04>

80000084 <label1_test04>:
80000084:	22b01263          	bne	zero,a1,800002a8 <fail>

80000088 <label2_test04>:
80000088:	fe208ee3          	beq	ra,sp,80000084 <label1_test04>

8000008c <label3_test04>:
8000008c:	00500593          	li	a1,5
80000090:	00100093          	li	ra,1
80000094:	00000113          	li	sp,0
80000098:	00208463          	beq	ra,sp,800000a0 <label1_test05>
8000009c:	00b01463          	bne	zero,a1,800000a4 <label2_test05>

800000a0 <label1_test05>:
800000a0:	20b01463          	bne	zero,a1,800002a8 <fail>

800000a4 <label2_test05>:
800000a4:	fe208ee3          	beq	ra,sp,800000a0 <label1_test05>

800000a8 <label3_test05>:
800000a8:	00600593          	li	a1,6
800000ac:	fff00093          	li	ra,-1
800000b0:	00100113          	li	sp,1
800000b4:	00208463          	beq	ra,sp,800000bc <label1_test06>
800000b8:	00b01463          	bne	zero,a1,800000c0 <label2_test06>

800000bc <label1_test06>:
800000bc:	1eb01663          	bne	zero,a1,800002a8 <fail>

800000c0 <label2_test06>:
800000c0:	fe208ee3          	beq	ra,sp,800000bc <label1_test06>

800000c4 <label3_test06>:
800000c4:	00700593          	li	a1,7
800000c8:	00100093          	li	ra,1
800000cc:	fff00113          	li	sp,-1
800000d0:	00208463          	beq	ra,sp,800000d8 <label1_test07>
800000d4:	00b01463          	bne	zero,a1,800000dc <label2_test07>

800000d8 <label1_test07>:
800000d8:	1cb01863          	bne	zero,a1,800002a8 <fail>

800000dc <label2_test07>:
800000dc:	fe208ee3          	beq	ra,sp,800000d8 <label1_test07>

800000e0 <label3_test07>:
800000e0:	00800593          	li	a1,8
800000e4:	00000213          	li	tp,0

800000e8 <label1_test08>:
800000e8:	00000093          	li	ra,0
800000ec:	fff00113          	li	sp,-1
800000f0:	1a208c63          	beq	ra,sp,800002a8 <fail>
800000f4:	00120213          	addi	tp,tp,1 # 1 <__start-0x7fffffff>
800000f8:	00200293          	li	t0,2
800000fc:	fe5216e3          	bne	tp,t0,800000e8 <label1_test08>

80000100 <test09>:
80000100:	00900593          	li	a1,9
80000104:	00000213          	li	tp,0

80000108 <label1_test09>:
80000108:	00000093          	li	ra,0
8000010c:	fff00113          	li	sp,-1
80000110:	00000013          	nop
80000114:	18208a63          	beq	ra,sp,800002a8 <fail>
80000118:	00120213          	addi	tp,tp,1 # 1 <__start-0x7fffffff>
8000011c:	00200293          	li	t0,2
80000120:	fe5214e3          	bne	tp,t0,80000108 <label1_test09>

80000124 <test10>:
80000124:	00a00593          	li	a1,10
80000128:	00000213          	li	tp,0

8000012c <label1_test10>:
8000012c:	00000093          	li	ra,0
80000130:	fff00113          	li	sp,-1
80000134:	00000013          	nop
80000138:	00000013          	nop
8000013c:	16208663          	beq	ra,sp,800002a8 <fail>
80000140:	00120213          	addi	tp,tp,1 # 1 <__start-0x7fffffff>
80000144:	00200293          	li	t0,2
80000148:	fe5212e3          	bne	tp,t0,8000012c <label1_test10>

8000014c <test11>:
8000014c:	00b00593          	li	a1,11
80000150:	00000213          	li	tp,0

80000154 <label1_test11>:
80000154:	00000093          	li	ra,0
80000158:	00000013          	nop
8000015c:	fff00113          	li	sp,-1
80000160:	14208463          	beq	ra,sp,800002a8 <fail>
80000164:	00120213          	addi	tp,tp,1 # 1 <__start-0x7fffffff>
80000168:	00200293          	li	t0,2
8000016c:	fe5214e3          	bne	tp,t0,80000154 <label1_test11>

80000170 <test12>:
80000170:	00c00593          	li	a1,12
80000174:	00000213          	li	tp,0

80000178 <label1_test12>:
80000178:	00000093          	li	ra,0
8000017c:	00000013          	nop
80000180:	fff00113          	li	sp,-1
80000184:	00000013          	nop
80000188:	12208063          	beq	ra,sp,800002a8 <fail>
8000018c:	00120213          	addi	tp,tp,1 # 1 <__start-0x7fffffff>
80000190:	00200293          	li	t0,2
80000194:	fe5212e3          	bne	tp,t0,80000178 <label1_test12>

80000198 <test13>:
80000198:	00d00593          	li	a1,13
8000019c:	00000213          	li	tp,0

800001a0 <label1_test13>:
800001a0:	00000093          	li	ra,0
800001a4:	00000013          	nop
800001a8:	00000013          	nop
800001ac:	fff00113          	li	sp,-1
800001b0:	0e208c63          	beq	ra,sp,800002a8 <fail>
800001b4:	00120213          	addi	tp,tp,1 # 1 <__start-0x7fffffff>
800001b8:	00200293          	li	t0,2
800001bc:	fe5212e3          	bne	tp,t0,800001a0 <label1_test13>

800001c0 <test14>:
800001c0:	00e00593          	li	a1,14
800001c4:	00000213          	li	tp,0

800001c8 <label1_test14>:
800001c8:	00000093          	li	ra,0
800001cc:	fff00113          	li	sp,-1
800001d0:	0c208c63          	beq	ra,sp,800002a8 <fail>
800001d4:	00120213          	addi	tp,tp,1 # 1 <__start-0x7fffffff>
800001d8:	00200293          	li	t0,2
800001dc:	fe5216e3          	bne	tp,t0,800001c8 <label1_test14>

800001e0 <test15>:
800001e0:	00f00593          	li	a1,15
800001e4:	00000213          	li	tp,0

800001e8 <label1_test15>:
800001e8:	00000093          	li	ra,0
800001ec:	fff00113          	li	sp,-1
800001f0:	00000013          	nop
800001f4:	0a208a63          	beq	ra,sp,800002a8 <fail>
800001f8:	00120213          	addi	tp,tp,1 # 1 <__start-0x7fffffff>
800001fc:	00200293          	li	t0,2
80000200:	fe5214e3          	bne	tp,t0,800001e8 <label1_test15>

80000204 <test16>:
80000204:	01000593          	li	a1,16
80000208:	00000213          	li	tp,0

8000020c <label1_test16>:
8000020c:	00000093          	li	ra,0
80000210:	fff00113          	li	sp,-1
80000214:	00000013          	nop
80000218:	00000013          	nop
8000021c:	08208663          	beq	ra,sp,800002a8 <fail>
80000220:	00120213          	addi	tp,tp,1 # 1 <__start-0x7fffffff>
80000224:	00200293          	li	t0,2
80000228:	fe5212e3          	bne	tp,t0,8000020c <label1_test16>

8000022c <test17>:
8000022c:	01100593          	li	a1,17
80000230:	00000213          	li	tp,0

80000234 <label1_test17>:
80000234:	00000093          	li	ra,0
80000238:	00000013          	nop
8000023c:	fff00113          	li	sp,-1
80000240:	06208463          	beq	ra,sp,800002a8 <fail>
80000244:	00120213          	addi	tp,tp,1 # 1 <__start-0x7fffffff>
80000248:	00200293          	li	t0,2
8000024c:	fe5214e3          	bne	tp,t0,80000234 <label1_test17>

80000250 <test18>:
80000250:	01200593          	li	a1,18
80000254:	00000213          	li	tp,0

80000258 <label1_test18>:
80000258:	00000093          	li	ra,0
8000025c:	00000013          	nop
80000260:	fff00113          	li	sp,-1
80000264:	00000013          	nop
80000268:	04208063          	beq	ra,sp,800002a8 <fail>
8000026c:	00120213          	addi	tp,tp,1 # 1 <__start-0x7fffffff>
80000270:	00200293          	li	t0,2
80000274:	fe5212e3          	bne	tp,t0,80000258 <label1_test18>

80000278 <test19>:
80000278:	01300593          	li	a1,19
8000027c:	00000213          	li	tp,0

80000280 <label1_test19>:
80000280:	00000093          	li	ra,0
80000284:	00000013          	nop
80000288:	00000013          	nop
8000028c:	fff00113          	li	sp,-1
80000290:	00208c63          	beq	ra,sp,800002a8 <fail>
80000294:	00120213          	addi	tp,tp,1 # 1 <__start-0x7fffffff>
80000298:	00200293          	li	t0,2
8000029c:	fe5212e3          	bne	tp,t0,80000280 <label1_test19>

800002a0 <success>:
800002a0:	00a00513          	li	a0,10
800002a4:	00000073          	ecall

800002a8 <fail>:
800002a8:	01100513          	li	a0,17
800002ac:	00000073          	ecall
